(dp1
S'numberofpeople'
p2
(lp3
S'1'
aS'2'
aS'3'
asS'from'
p4
(lp5
S'delhi'
p6
aS'mumbai'
p7
aS'hyderabad'
p8
aS'bangalore'
p9
aS'lucknow'
p10
aS'varanasi'
p11
aS'kanpur'
p12
asS'deptime'
p13
(lp14
S'morning'
p15
aS'afternoon'
p16
aS'evening'
p17
aS'night'
p18
asS'to'
p19
(lp20
g6
ag7
ag8
ag9
ag10
ag11
ag12
asS'airline'
p21
(lp22
S'indigo'
p23
aS'airasia'
p24
aS'goair'
p25
aS'spicejet'
p26
asS'depdate'
p27
(lp28
S'7'
aS'8'
aS'9'
as.