(dp1
I0
(dp2
S'depdate'
p3
S'7'
sS'to'
p4
S'bangalore'
p5
sS'from'
p6
S'delhi'
p7
sS'airline'
p8
S'indigo'
p9
sS'deptime'
p10
S'morning'
p11
ssI1
(dp12
g3
S'8'
sg4
g7
sg6
S'mumbai'
p13
sg8
S'airasia'
p14
sg10
S'evening'
p15
ssI2
(dp16
g3
S'7'
sg4
S'lucknow'
p17
sg6
S'hyderabad'
p18
sg8
S'goair'
p19
sg10
S'afternoon'
p20
ssI3
(dp21
g3
S'8'
sg4
S'varanasi'
p22
sg6
g7
sg8
g9
sg10
S'night'
p23
ssI4
(dp24
g3
S'9'
sg4
g13
sg6
g7
sg8
S'spicejet'
p25
sg10
g11
ssI5
(dp26
g3
S'9'
sg4
S'kanpur'
p27
sg6
g5
sg8
g25
sg10
g23
ss.