(lp1
(dp2
S'request_slots'
p3
(dp4
sS'diaact'
p5
S'request'
p6
sS'inform_slots'
p7
(dp8
S'depdate'
p9
S'9'
sS'to'
p10
S'mumbai'
p11
sS'from'
p12
S'delhi'
p13
ssa(dp14
g3
(dp15
S'airline'
p16
S'UNK'
p17
sS'deptime'
p18
g17
ssg5
g6
sg7
(dp19
g9
S'9'
sg10
S'kanpur'
p20
sg12
S'bangalore'
p21
ssa(dp22
g3
(dp23
sg5
g6
sg7
(dp24
g9
S'7'
sg10
g21
sg12
g13
sg16
S'indigo'
p25
ssa(dp26
g3
(dp27
sg5
g6
sg7
(dp28
g9
S'7'
sg10
S'lucknow'
p29
sg12
S'hyderabad'
p30
sg18
S'afternoon'
p31
ssa(dp32
g3
(dp33
sg5
g6
sg7
(dp34
g9
S'8'
sg10
g13
sg12
g11
sg16
g25
ssa.